target datalayout = "e-m:e-p270:32:32-p271:32:32-p272:64:64-i64:64-i128:128-f80:128-n8:16:32:64-S128"
target triple = "x86_64-pc-linux-gnu"

%struct.UDataInfo = type { i16, i16, i8, i8, i8, i8, [4 x i8], [4 x i8], [4 x i8] }
%struct.UDataSwapper = type { i8, i8, i8, i8, ptr, ptr, ptr, ptr, ptr, ptr, ptr, ptr, ptr, ptr, ptr }

@.str.5 = private unnamed_addr constant [108 x i8] c"ucase_swap(): data format %02x.%02x.%02x.%02x (format version %02x) is not recognized as case mapping data\0A\00", align 1
@.str.6 = private unnamed_addr constant [69 x i8] c"ucase_swap(): too few bytes (%d after header) for case mapping data\0A\00", align 1
@.str.7 = private unnamed_addr constant [76 x i8] c"ucase_swap(): too few bytes (%d after header) for all of case mapping data\0A\00", align 1

; Function Attrs: inlinehint mustprogress nounwind uwtable
define internal noundef signext i8 @_ZL9U_FAILURE10UErrorCode(i32 noundef %0) #2 {
  %2 = alloca i32, align 4
  store i32 %0, ptr %2, align 4, !tbaa !11
  %3 = load i32, ptr %2, align 4, !tbaa !11
  %4 = icmp sgt i32 %3, 0
  %5 = zext i1 %4 to i8
  ret i8 %5
}

; Function Attrs: mustprogress uwtable
define internal noundef i32 @_ZL10ucase_swapPK12UDataSwapperPKviPvP10UErrorCode(ptr noundef %0, ptr noundef %1, i32 noundef %2, ptr noundef %3, ptr noundef %4) #0 {
  %6 = alloca i32, align 4
  %7 = alloca ptr, align 8
  %8 = alloca ptr, align 8
  %9 = alloca i32, align 4
  %10 = alloca ptr, align 8
  %11 = alloca ptr, align 8
  %12 = alloca ptr, align 8
  %13 = alloca i32, align 4
  %14 = alloca ptr, align 8
  %15 = alloca ptr, align 8
  %16 = alloca ptr, align 8
  %17 = alloca [16 x i32], align 16
  %18 = alloca i32, align 4
  %19 = alloca i32, align 4
  %20 = alloca i32, align 4
  %21 = alloca i32, align 4
  %22 = alloca i32, align 4
  store ptr %0, ptr %7, align 8, !tbaa !3
  store ptr %1, ptr %8, align 8, !tbaa !8
  store i32 %2, ptr %9, align 4, !tbaa !9
  store ptr %3, ptr %10, align 8, !tbaa !8
  store ptr %4, ptr %11, align 8, !tbaa !8
  call void @llvm.lifetime.start.p0(i64 8, ptr %12) #6
  call void @llvm.lifetime.start.p0(i64 4, ptr %13) #6
  call void @llvm.lifetime.start.p0(i64 8, ptr %14) #6
  call void @llvm.lifetime.start.p0(i64 8, ptr %15) #6
  call void @llvm.lifetime.start.p0(i64 8, ptr %16) #6
  call void @llvm.lifetime.start.p0(i64 64, ptr %17) #6
  call void @llvm.lifetime.start.p0(i64 4, ptr %18) #6
  call void @llvm.lifetime.start.p0(i64 4, ptr %19) #6
  call void @llvm.lifetime.start.p0(i64 4, ptr %20) #6
  call void @llvm.lifetime.start.p0(i64 4, ptr %21) #6
  %23 = load ptr, ptr %7, align 8, !tbaa !3
  %24 = load ptr, ptr %8, align 8, !tbaa !8
  %25 = load i32, ptr %9, align 4, !tbaa !9
  %26 = load ptr, ptr %10, align 8, !tbaa !8
  %27 = load ptr, ptr %11, align 8, !tbaa !8
  %28 = call i32 @udata_swapDataHeader_77(ptr noundef %23, ptr noundef %24, i32 noundef %25, ptr noundef %26, ptr noundef %27)
  store i32 %28, ptr %13, align 4, !tbaa !9
  %29 = load ptr, ptr %11, align 8, !tbaa !8
  %30 = icmp eq ptr %29, null
  br i1 %30, label %36, label %31

31:                                               ; preds = %5
  %32 = load ptr, ptr %11, align 8, !tbaa !8
  %33 = load i32, ptr %32, align 4, !tbaa !11
  %34 = call noundef signext i8 @_ZL9U_FAILURE10UErrorCode(i32 noundef %33)
  %35 = icmp ne i8 %34, 0
  br i1 %35, label %36, label %37

36:                                               ; preds = %31, %5
  store i32 0, ptr %6, align 4
  store i32 1, ptr %22, align 4
  br label %257

37:                                               ; preds = %31
  %38 = load ptr, ptr %8, align 8, !tbaa !8
  %39 = getelementptr inbounds i8, ptr %38, i64 4
  store ptr %39, ptr %12, align 8, !tbaa !8
  %40 = load ptr, ptr %12, align 8, !tbaa !8
  %41 = getelementptr inbounds nuw %struct.UDataInfo, ptr %40, i32 0, i32 6
  %42 = getelementptr inbounds [4 x i8], ptr %41, i64 0, i64 0
  %43 = load i8, ptr %42, align 2, !tbaa !13
  %44 = zext i8 %43 to i32
  %45 = icmp eq i32 %44, 99
  br i1 %45, label %46, label %102

46:                                               ; preds = %37
  %47 = load ptr, ptr %12, align 8, !tbaa !8
  %48 = getelementptr inbounds nuw %struct.UDataInfo, ptr %47, i32 0, i32 6
  %49 = getelementptr inbounds [4 x i8], ptr %48, i64 0, i64 1
  %50 = load i8, ptr %49, align 1, !tbaa !13
  %51 = zext i8 %50 to i32
  %52 = icmp eq i32 %51, 65
  br i1 %52, label %53, label %102

53:                                               ; preds = %46
  %54 = load ptr, ptr %12, align 8, !tbaa !8
  %55 = getelementptr inbounds nuw %struct.UDataInfo, ptr %54, i32 0, i32 6
  %56 = getelementptr inbounds [4 x i8], ptr %55, i64 0, i64 2
  %57 = load i8, ptr %56, align 2, !tbaa !13
  %58 = zext i8 %57 to i32
  %59 = icmp eq i32 %58, 83
  br i1 %59, label %60, label %102

60:                                               ; preds = %53
  %61 = load ptr, ptr %12, align 8, !tbaa !8
  %62 = getelementptr inbounds nuw %struct.UDataInfo, ptr %61, i32 0, i32 6
  %63 = getelementptr inbounds [4 x i8], ptr %62, i64 0, i64 3
  %64 = load i8, ptr %63, align 1, !tbaa !13
  %65 = zext i8 %64 to i32
  %66 = icmp eq i32 %65, 69
  br i1 %66, label %67, label %102

67:                                               ; preds = %60
  %68 = load ptr, ptr %12, align 8, !tbaa !8
  %69 = getelementptr inbounds nuw %struct.UDataInfo, ptr %68, i32 0, i32 7
  %70 = getelementptr inbounds [4 x i8], ptr %69, i64 0, i64 0
  %71 = load i8, ptr %70, align 2, !tbaa !13
  %72 = zext i8 %71 to i32
  %73 = icmp eq i32 %72, 1
  br i1 %73, label %74, label %88

74:                                               ; preds = %67
  %75 = load ptr, ptr %12, align 8, !tbaa !8
  %76 = getelementptr inbounds nuw %struct.UDataInfo, ptr %75, i32 0, i32 7
  %77 = getelementptr inbounds [4 x i8], ptr %76, i64 0, i64 2
  %78 = load i8, ptr %77, align 2, !tbaa !13
  %79 = zext i8 %78 to i32
  %80 = icmp eq i32 %79, 5
  br i1 %80, label %81, label %88

81:                                               ; preds = %74
  %82 = load ptr, ptr %12, align 8, !tbaa !8
  %83 = getelementptr inbounds nuw %struct.UDataInfo, ptr %82, i32 0, i32 7
  %84 = getelementptr inbounds [4 x i8], ptr %83, i64 0, i64 3
  %85 = load i8, ptr %84, align 1, !tbaa !13
  %86 = zext i8 %85 to i32
  %87 = icmp eq i32 %86, 2
  br i1 %87, label %130, label %88

88:                                               ; preds = %81, %74, %67
  %89 = load ptr, ptr %12, align 8, !tbaa !8
  %90 = getelementptr inbounds nuw %struct.UDataInfo, ptr %89, i32 0, i32 7
  %91 = getelementptr inbounds [4 x i8], ptr %90, i64 0, i64 0
  %92 = load i8, ptr %91, align 2, !tbaa !13
  %93 = zext i8 %92 to i32
  %94 = icmp sle i32 2, %93
  br i1 %94, label %95, label %102

95:                                               ; preds = %88
  %96 = load ptr, ptr %12, align 8, !tbaa !8
  %97 = getelementptr inbounds nuw %struct.UDataInfo, ptr %96, i32 0, i32 7
  %98 = getelementptr inbounds [4 x i8], ptr %97, i64 0, i64 0
  %99 = load i8, ptr %98, align 2, !tbaa !13
  %100 = zext i8 %99 to i32
  %101 = icmp sle i32 %100, 4
  br i1 %101, label %130, label %102

102:                                              ; preds = %95, %88, %60, %53, %46, %37
  %103 = load ptr, ptr %7, align 8, !tbaa !3
  %104 = load ptr, ptr %12, align 8, !tbaa !8
  %105 = getelementptr inbounds nuw %struct.UDataInfo, ptr %104, i32 0, i32 6
  %106 = getelementptr inbounds [4 x i8], ptr %105, i64 0, i64 0
  %107 = load i8, ptr %106, align 2, !tbaa !13
  %108 = zext i8 %107 to i32
  %109 = load ptr, ptr %12, align 8, !tbaa !8
  %110 = getelementptr inbounds nuw %struct.UDataInfo, ptr %109, i32 0, i32 6
  %111 = getelementptr inbounds [4 x i8], ptr %110, i64 0, i64 1
  %112 = load i8, ptr %111, align 1, !tbaa !13
  %113 = zext i8 %112 to i32
  %114 = load ptr, ptr %12, align 8, !tbaa !8
  %115 = getelementptr inbounds nuw %struct.UDataInfo, ptr %114, i32 0, i32 6
  %116 = getelementptr inbounds [4 x i8], ptr %115, i64 0, i64 2
  %117 = load i8, ptr %116, align 2, !tbaa !13
  %118 = zext i8 %117 to i32
  %119 = load ptr, ptr %12, align 8, !tbaa !8
  %120 = getelementptr inbounds nuw %struct.UDataInfo, ptr %119, i32 0, i32 6
  %121 = getelementptr inbounds [4 x i8], ptr %120, i64 0, i64 3
  %122 = load i8, ptr %121, align 1, !tbaa !13
  %123 = zext i8 %122 to i32
  %124 = load ptr, ptr %12, align 8, !tbaa !8
  %125 = getelementptr inbounds nuw %struct.UDataInfo, ptr %124, i32 0, i32 7
  %126 = getelementptr inbounds [4 x i8], ptr %125, i64 0, i64 0
  %127 = load i8, ptr %126, align 2, !tbaa !13
  %128 = zext i8 %127 to i32
  call void (ptr, ptr, ...) @udata_printError_77(ptr noundef %103, ptr noundef @.str.5, i32 noundef %108, i32 noundef %113, i32 noundef %118, i32 noundef %123, i32 noundef %128)
  %129 = load ptr, ptr %11, align 8, !tbaa !8
  store i32 16, ptr %129, align 4, !tbaa !11
  store i32 0, ptr %6, align 4
  store i32 1, ptr %22, align 4
  br label %257

130:                                              ; preds = %95, %81
  %131 = load ptr, ptr %8, align 8, !tbaa !8
  %132 = load i32, ptr %13, align 4, !tbaa !9
  %133 = sext i32 %132 to i64
  %134 = getelementptr inbounds i8, ptr %131, i64 %133
  store ptr %134, ptr %14, align 8, !tbaa !27
  %135 = load ptr, ptr %10, align 8, !tbaa !8
  %136 = load i32, ptr %13, align 4, !tbaa !9
  %137 = sext i32 %136 to i64
  %138 = getelementptr inbounds i8, ptr %135, i64 %137
  store ptr %138, ptr %15, align 8, !tbaa !27
  %139 = load ptr, ptr %14, align 8, !tbaa !27
  store ptr %139, ptr %16, align 8, !tbaa !20
  %140 = load i32, ptr %9, align 4, !tbaa !9
  %141 = icmp sge i32 %140, 0
  br i1 %141, label %142, label %153

142:                                              ; preds = %130
  %143 = load i32, ptr %13, align 4, !tbaa !9
  %144 = load i32, ptr %9, align 4, !tbaa !9
  %145 = sub nsw i32 %144, %143
  store i32 %145, ptr %9, align 4, !tbaa !9
  %146 = load i32, ptr %9, align 4, !tbaa !9
  %147 = icmp slt i32 %146, 64
  br i1 %147, label %148, label %152

148:                                              ; preds = %142
  %149 = load ptr, ptr %7, align 8, !tbaa !3
  %150 = load i32, ptr %9, align 4, !tbaa !9
  call void (ptr, ptr, ...) @udata_printError_77(ptr noundef %149, ptr noundef @.str.6, i32 noundef %150)
  %151 = load ptr, ptr %11, align 8, !tbaa !8
  store i32 8, ptr %151, align 4, !tbaa !11
  store i32 0, ptr %6, align 4
  store i32 1, ptr %22, align 4
  br label %257

152:                                              ; preds = %142
  br label %153

153:                                              ; preds = %152, %130
  store i32 0, ptr %18, align 4, !tbaa !9
  br label %154

154:                                              ; preds = %168, %153
  %155 = load i32, ptr %18, align 4, !tbaa !9
  %156 = icmp slt i32 %155, 16
  br i1 %156, label %157, label %171

157:                                              ; preds = %154
  %158 = load ptr, ptr %7, align 8, !tbaa !3
  %159 = load ptr, ptr %16, align 8, !tbaa !20
  %160 = load i32, ptr %18, align 4, !tbaa !9
  %161 = sext i32 %160 to i64
  %162 = getelementptr inbounds i32, ptr %159, i64 %161
  %163 = load i32, ptr %162, align 4, !tbaa !9
  %164 = call i32 @udata_readInt32_77(ptr noundef %158, i32 noundef %163)
  %165 = load i32, ptr %18, align 4, !tbaa !9
  %166 = sext i32 %165 to i64
  %167 = getelementptr inbounds [16 x i32], ptr %17, i64 0, i64 %166
  store i32 %164, ptr %167, align 4, !tbaa !9
  br label %168

168:                                              ; preds = %157
  %169 = load i32, ptr %18, align 4, !tbaa !9
  %170 = add nsw i32 %169, 1
  store i32 %170, ptr %18, align 4, !tbaa !9
  br label %154, !llvm.loop !29

171:                                              ; preds = %154
  %172 = getelementptr inbounds nuw [16 x i32], ptr %17, i64 0, i64 1
  %173 = load i32, ptr %172, align 4, !tbaa !9
  store i32 %173, ptr %21, align 4, !tbaa !9
  %174 = load i32, ptr %9, align 4, !tbaa !9
  %175 = icmp sge i32 %174, 0
  br i1 %175, label %176, label %253

176:                                              ; preds = %171
  %177 = load i32, ptr %9, align 4, !tbaa !9
  %178 = load i32, ptr %21, align 4, !tbaa !9
  %179 = icmp slt i32 %177, %178
  br i1 %179, label %180, label %184

180:                                              ; preds = %176
  %181 = load ptr, ptr %7, align 8, !tbaa !3
  %182 = load i32, ptr %9, align 4, !tbaa !9
  call void (ptr, ptr, ...) @udata_printError_77(ptr noundef %181, ptr noundef @.str.7, i32 noundef %182)
  %183 = load ptr, ptr %11, align 8, !tbaa !8
  store i32 8, ptr %183, align 4, !tbaa !11
  store i32 0, ptr %6, align 4
  store i32 1, ptr %22, align 4
  br label %257

184:                                              ; preds = %176
  %185 = load ptr, ptr %14, align 8, !tbaa !27
  %186 = load ptr, ptr %15, align 8, !tbaa !27
  %187 = icmp ne ptr %185, %186
  br i1 %187, label %188, label %196

188:                                              ; preds = %184
  br label %189

189:                                              ; preds = %188
  %190 = load ptr, ptr %15, align 8, !tbaa !27
  %191 = load ptr, ptr %14, align 8, !tbaa !27
  %192 = load i32, ptr %21, align 4, !tbaa !9
  %193 = sext i32 %192 to i64
  call void @llvm.memcpy.p0.p0.i64(ptr align 1 %190, ptr align 1 %191, i64 %193, i1 false)
  br label %194

194:                                              ; preds = %189
  br label %195

195:                                              ; preds = %194
  br label %196

196:                                              ; preds = %195, %184
  store i32 0, ptr %19, align 4, !tbaa !9
  %197 = getelementptr inbounds nuw [16 x i32], ptr %17, i64 0, i64 0
  %198 = load i32, ptr %197, align 16, !tbaa !9
  %199 = mul nsw i32 %198, 4
  store i32 %199, ptr %20, align 4, !tbaa !9
  %200 = load ptr, ptr %7, align 8, !tbaa !3
  %201 = getelementptr inbounds nuw %struct.UDataSwapper, ptr %200, i32 0, i32 10
  %202 = load ptr, ptr %201, align 8, !tbaa !24
  %203 = load ptr, ptr %7, align 8, !tbaa !3
  %204 = load ptr, ptr %14, align 8, !tbaa !27
  %205 = load i32, ptr %20, align 4, !tbaa !9
  %206 = load ptr, ptr %15, align 8, !tbaa !27
  %207 = load ptr, ptr %11, align 8, !tbaa !8
  %208 = call noundef i32 %202(ptr noundef %203, ptr noundef %204, i32 noundef %205, ptr noundef %206, ptr noundef %207)
  %209 = load i32, ptr %20, align 4, !tbaa !9
  %210 = load i32, ptr %19, align 4, !tbaa !9
  %211 = add nsw i32 %210, %209
  store i32 %211, ptr %19, align 4, !tbaa !9
  %212 = getelementptr inbounds nuw [16 x i32], ptr %17, i64 0, i64 2
  %213 = load i32, ptr %212, align 8, !tbaa !9
  store i32 %213, ptr %20, align 4, !tbaa !9
  %214 = load ptr, ptr %7, align 8, !tbaa !3
  %215 = load ptr, ptr %14, align 8, !tbaa !27
  %216 = load i32, ptr %19, align 4, !tbaa !9
  %217 = sext i32 %216 to i64
  %218 = getelementptr inbounds i8, ptr %215, i64 %217
  %219 = load i32, ptr %20, align 4, !tbaa !9
  %220 = load ptr, ptr %15, align 8, !tbaa !27
  %221 = load i32, ptr %19, align 4, !tbaa !9
  %222 = sext i32 %221 to i64
  %223 = getelementptr inbounds i8, ptr %220, i64 %222
  %224 = load ptr, ptr %11, align 8, !tbaa !8
  %225 = call i32 @utrie_swapAnyVersion_77(ptr noundef %214, ptr noundef %218, i32 noundef %219, ptr noundef %223, ptr noundef %224)
  %226 = load i32, ptr %20, align 4, !tbaa !9
  %227 = load i32, ptr %19, align 4, !tbaa !9
  %228 = add nsw i32 %227, %226
  store i32 %228, ptr %19, align 4, !tbaa !9
  %229 = getelementptr inbounds nuw [16 x i32], ptr %17, i64 0, i64 3
  %230 = load i32, ptr %229, align 4, !tbaa !9
  %231 = getelementptr inbounds nuw [16 x i32], ptr %17, i64 0, i64 4
  %232 = load i32, ptr %231, align 16, !tbaa !9
  %233 = add nsw i32 %230, %232
  %234 = mul nsw i32 %233, 2
  store i32 %234, ptr %20, align 4, !tbaa !9
  %235 = load ptr, ptr %7, align 8, !tbaa !3
  %236 = getelementptr inbounds nuw %struct.UDataSwapper, ptr %235, i32 0, i32 9
  %237 = load ptr, ptr %236, align 8, !tbaa !26
  %238 = load ptr, ptr %7, align 8, !tbaa !3
  %239 = load ptr, ptr %14, align 8, !tbaa !27
  %240 = load i32, ptr %19, align 4, !tbaa !9
  %241 = sext i32 %240 to i64
  %242 = getelementptr inbounds i8, ptr %239, i64 %241
  %243 = load i32, ptr %20, align 4, !tbaa !9
  %244 = load ptr, ptr %15, align 8, !tbaa !27
  %245 = load i32, ptr %19, align 4, !tbaa !9
  %246 = sext i32 %245 to i64
  %247 = getelementptr inbounds i8, ptr %244, i64 %246
  %248 = load ptr, ptr %11, align 8, !tbaa !8
  %249 = call noundef i32 %237(ptr noundef %238, ptr noundef %242, i32 noundef %243, ptr noundef %247, ptr noundef %248)
  %250 = load i32, ptr %20, align 4, !tbaa !9
  %251 = load i32, ptr %19, align 4, !tbaa !9
  %252 = add nsw i32 %251, %250
  store i32 %252, ptr %19, align 4, !tbaa !9
  br label %253

253:                                              ; preds = %196, %171
  %254 = load i32, ptr %13, align 4, !tbaa !9
  %255 = load i32, ptr %21, align 4, !tbaa !9
  %256 = add nsw i32 %254, %255
  store i32 %256, ptr %6, align 4
  store i32 1, ptr %22, align 4
  br label %257

257:                                              ; preds = %253, %180, %148, %102, %36
  call void @llvm.lifetime.end.p0(i64 4, ptr %21) #6
  call void @llvm.lifetime.end.p0(i64 4, ptr %20) #6
  call void @llvm.lifetime.end.p0(i64 4, ptr %19) #6
  call void @llvm.lifetime.end.p0(i64 4, ptr %18) #6
  call void @llvm.lifetime.end.p0(i64 64, ptr %17) #6
  call void @llvm.lifetime.end.p0(i64 8, ptr %16) #6
  call void @llvm.lifetime.end.p0(i64 8, ptr %15) #6
  call void @llvm.lifetime.end.p0(i64 8, ptr %14) #6
  call void @llvm.lifetime.end.p0(i64 4, ptr %13) #6
  call void @llvm.lifetime.end.p0(i64 8, ptr %12) #6
  %258 = load i32, ptr %6, align 4
  ret i32 %258
}