; Function Attrs: mustprogress uwtable
define internal noundef i32 @_ZL10ucase_swapPK12UDataSwapperPKviPvP10UErrorCode(ptr noundef %0, ptr noundef %1, i32 noundef %2, ptr noundef %3, ptr noundef %4) #0 {
  %6 = alloca [16 x i32], align 16
  call void @llvm.lifetime.start.p0(i64 64, ptr nonnull %6) #5
  %7 = tail call i32 @udata_swapDataHeader_77(ptr noundef %0, ptr noundef %1, i32 noundef %2, ptr noundef %3, ptr noundef %4)
  %8 = icmp eq ptr %4, null
  br i1 %8, label %105, label %9

9:                                                ; preds = %5
  %10 = load i32, ptr %4, align 4, !tbaa !3
  %11 = icmp slt i32 %10, 1
  br i1 %11, label %12, label %105

12:                                               ; preds = %9
  %13 = getelementptr inbounds nuw i8, ptr %1, i64 12
  %14 = load i8, ptr %13, align 2, !tbaa !7
  %15 = icmp eq i8 %14, 99
  %16 = getelementptr inbounds nuw i8, ptr %1, i64 13
  %17 = load i8, ptr %16, align 1, !tbaa !7
  %18 = icmp eq i8 %17, 65
  %or.cond96 = select i1 %15, i1 %18, i1 false
  br i1 %or.cond96, label %19, label %.thread

19:                                               ; preds = %12
  %20 = getelementptr inbounds nuw i8, ptr %1, i64 14
  %21 = load i8, ptr %20, align 2, !tbaa !7
  %22 = icmp eq i8 %21, 83
  br i1 %22, label %23, label %.thread

23:                                               ; preds = %19
  %24 = getelementptr inbounds nuw i8, ptr %1, i64 15
  %25 = load i8, ptr %24, align 1, !tbaa !7
  %26 = icmp eq i8 %25, 69
  br i1 %26, label %27, label %.thread

27:                                               ; preds = %23
  %28 = getelementptr inbounds nuw i8, ptr %1, i64 16
  %29 = load i8, ptr %28, align 2, !tbaa !7
  %30 = icmp eq i8 %29, 1
  br i1 %30, label %31, label %39

31:                                               ; preds = %27
  %32 = getelementptr inbounds nuw i8, ptr %1, i64 18
  %33 = load i8, ptr %32, align 2, !tbaa !7
  %34 = icmp eq i8 %33, 5
  br i1 %34, label %35, label %.thread

35:                                               ; preds = %31
  %36 = getelementptr inbounds nuw i8, ptr %1, i64 19
  %37 = load i8, ptr %36, align 1, !tbaa !7
  %38 = icmp eq i8 %37, 2
  br i1 %38, label %53, label %.thread

39:                                               ; preds = %27
  %40 = add i8 %29, -1
  %or.cond = icmp ult i8 %40, 4
  br i1 %or.cond, label %53, label %.thread

.thread:                                          ; preds = %12, %31, %35, %39, %23, %19
  %41 = phi i8 [ 65, %31 ], [ 65, %35 ], [ 65, %39 ], [ 65, %23 ], [ 65, %19 ], [ %17, %12 ]
  %42 = zext i8 %14 to i32
  %43 = zext i8 %41 to i32
  %44 = getelementptr inbounds nuw i8, ptr %1, i64 14
  %45 = load i8, ptr %44, align 2, !tbaa !7
  %46 = zext i8 %45 to i32
  %47 = getelementptr inbounds nuw i8, ptr %1, i64 15
  %48 = load i8, ptr %47, align 1, !tbaa !7
  %49 = zext i8 %48 to i32
  %50 = getelementptr inbounds nuw i8, ptr %1, i64 16
  %51 = load i8, ptr %50, align 2, !tbaa !7
  %52 = zext i8 %51 to i32
  tail call void (ptr, ptr, ...) @udata_printError_77(ptr noundef %0, ptr noundef nonnull @.str.5, i32 noundef %42, i32 noundef %43, i32 noundef %46, i32 noundef %49, i32 noundef %52)
  store i32 16, ptr %4, align 4, !tbaa !3
  br label %105

53:                                               ; preds = %39, %35
  %54 = sext i32 %7 to i64
  %55 = getelementptr inbounds i8, ptr %1, i64 %54
  %56 = getelementptr inbounds i8, ptr %3, i64 %54
  %57 = icmp sgt i32 %2, -1
  br i1 %57, label %58, label %62

58:                                               ; preds = %53
  %59 = sub nsw i32 %2, %7
  %60 = icmp slt i32 %59, 64
  br i1 %60, label %61, label %62

61:                                               ; preds = %58
  tail call void (ptr, ptr, ...) @udata_printError_77(ptr noundef %0, ptr noundef nonnull @.str.6, i32 noundef %59)
  store i32 8, ptr %4, align 4, !tbaa !3
  br label %105

62:                                               ; preds = %58, %53
  %.082 = phi i32 [ %59, %58 ], [ %2, %53 ]
  br label %63

63:                                               ; preds = %62, %63
  %indvars.iv = phi i64 [ 0, %62 ], [ %indvars.iv.next, %63 ]
  %64 = getelementptr inbounds nuw i32, ptr %55, i64 %indvars.iv
  %65 = load i32, ptr %64, align 4, !tbaa !15
  %66 = tail call i32 @udata_readInt32_77(ptr noundef %0, i32 noundef %65)
  %67 = getelementptr inbounds nuw [16 x i32], ptr %6, i64 0, i64 %indvars.iv
  store i32 %66, ptr %67, align 4, !tbaa !15
  %indvars.iv.next = add nuw nsw i64 %indvars.iv, 1
  %exitcond.not = icmp eq i64 %indvars.iv.next, 16
  br i1 %exitcond.not, label %68, label %63, !llvm.loop !22

68:                                               ; preds = %63
  %69 = getelementptr inbounds nuw i8, ptr %6, i64 4
  %70 = load i32, ptr %69, align 4, !tbaa !15
  %71 = icmp sgt i32 %.082, -1
  br i1 %71, label %72, label %103

72:                                               ; preds = %68
  %73 = icmp slt i32 %.082, %70
  br i1 %73, label %74, label %75

74:                                               ; preds = %72
  tail call void (ptr, ptr, ...) @udata_printError_77(ptr noundef %0, ptr noundef nonnull @.str.7, i32 noundef %.082)
  store i32 8, ptr %4, align 4, !tbaa !3
  br label %105

75:                                               ; preds = %72
  %.not92 = icmp eq ptr %1, %3
  br i1 %.not92, label %78, label %76

76:                                               ; preds = %75
  %77 = sext i32 %70 to i64
  tail call void @llvm.memcpy.p0.p0.i64(ptr align 1 %56, ptr nonnull align 1 %55, i64 %77, i1 false)
  br label %78

78:                                               ; preds = %76, %75
  %79 = load i32, ptr %6, align 16, !tbaa !15
  %80 = shl nsw i32 %79, 2
  %81 = getelementptr inbounds nuw i8, ptr %0, i64 56
  %82 = load ptr, ptr %81, align 8, !tbaa !19
  %83 = tail call noundef i32 %82(ptr noundef %0, ptr noundef nonnull %55, i32 noundef %80, ptr noundef %56, ptr noundef nonnull %4)
  %84 = getelementptr inbounds nuw i8, ptr %6, i64 8
  %85 = load i32, ptr %84, align 8, !tbaa !15
  %86 = sext i32 %80 to i64
  %87 = getelementptr inbounds i8, ptr %55, i64 %86
  %88 = getelementptr inbounds i8, ptr %56, i64 %86
  %89 = tail call i32 @utrie_swapAnyVersion_77(ptr noundef %0, ptr noundef nonnull %87, i32 noundef %85, ptr noundef %88, ptr noundef nonnull %4)
  %90 = add nsw i32 %85, %80
  %91 = getelementptr inbounds nuw i8, ptr %6, i64 12
  %92 = load i32, ptr %91, align 4, !tbaa !15
  %93 = getelementptr inbounds nuw i8, ptr %6, i64 16
  %94 = load i32, ptr %93, align 16, !tbaa !15
  %95 = add nsw i32 %94, %92
  %96 = shl nsw i32 %95, 1
  %97 = getelementptr inbounds nuw i8, ptr %0, i64 48
  %98 = load ptr, ptr %97, align 8, !tbaa !21
  %99 = sext i32 %90 to i64
  %100 = getelementptr inbounds i8, ptr %55, i64 %99
  %101 = getelementptr inbounds i8, ptr %56, i64 %99
  %102 = tail call noundef i32 %98(ptr noundef %0, ptr noundef nonnull %100, i32 noundef %96, ptr noundef %101, ptr noundef nonnull %4)
  br label %103

103:                                              ; preds = %78, %68
  %104 = add nsw i32 %70, %7
  br label %105

105:                                              ; preds = %5, %9, %103, %74, %61, %.thread
  %.0 = phi i32 [ 0, %61 ], [ 0, %74 ], [ %104, %103 ], [ 0, %.thread ], [ 0, %9 ], [ 0, %5 ]
  call void @llvm.lifetime.end.p0(i64 64, ptr nonnull %6) #5
  ret i32 %.0
}